target datalayout = "e-m:e-p270:32:32-p271:32:32-p272:64:64-i64:64-i128:128-f80:128-n8:16:32:64-S128"
target triple = "x86_64-pc-linux-gnu"

%struct.grpc_auth_refresh_token = type { ptr, ptr, ptr, ptr }

@.str = private unnamed_addr constant [8 x i8] c"invalid\00", align 1

; Function Attrs: mustprogress uwtable
define void @_Z32grpc_auth_refresh_token_destructP23grpc_auth_refresh_token(ptr noundef %0) #6 {
  %2 = alloca ptr, align 8
  store ptr %0, ptr %2, align 8, !tbaa !3
  %3 = load ptr, ptr %2, align 8, !tbaa !3
  %4 = icmp eq ptr %3, null
  br i1 %4, label %5, label %6

5:                                                ; preds = %1
  br label %41

6:                                                ; preds = %1
  %7 = load ptr, ptr %2, align 8, !tbaa !3
  %8 = getelementptr inbounds nuw %struct.grpc_auth_refresh_token, ptr %7, i32 0, i32 0
  store ptr @.str, ptr %8, align 8, !tbaa !8
  %9 = load ptr, ptr %2, align 8, !tbaa !3
  %10 = getelementptr inbounds nuw %struct.grpc_auth_refresh_token, ptr %9, i32 0, i32 1
  %11 = load ptr, ptr %10, align 8, !tbaa !25
  %12 = icmp ne ptr %11, null
  br i1 %12, label %13, label %19

13:                                               ; preds = %6
  %14 = load ptr, ptr %2, align 8, !tbaa !3
  %15 = getelementptr inbounds nuw %struct.grpc_auth_refresh_token, ptr %14, i32 0, i32 1
  %16 = load ptr, ptr %15, align 8, !tbaa !25
  call void @gpr_free(ptr noundef %16)
  %17 = load ptr, ptr %2, align 8, !tbaa !3
  %18 = getelementptr inbounds nuw %struct.grpc_auth_refresh_token, ptr %17, i32 0, i32 1
  store ptr null, ptr %18, align 8, !tbaa !25
  br label %19

19:                                               ; preds = %13, %6
  %20 = load ptr, ptr %2, align 8, !tbaa !3
  %21 = getelementptr inbounds nuw %struct.grpc_auth_refresh_token, ptr %20, i32 0, i32 2
  %22 = load ptr, ptr %21, align 8, !tbaa !26
  %23 = icmp ne ptr %22, null
  br i1 %23, label %24, label %30

24:                                               ; preds = %19
  %25 = load ptr, ptr %2, align 8, !tbaa !3
  %26 = getelementptr inbounds nuw %struct.grpc_auth_refresh_token, ptr %25, i32 0, i32 2
  %27 = load ptr, ptr %26, align 8, !tbaa !26
  call void @gpr_free(ptr noundef %27)
  %28 = load ptr, ptr %2, align 8, !tbaa !3
  %29 = getelementptr inbounds nuw %struct.grpc_auth_refresh_token, ptr %28, i32 0, i32 2
  store ptr null, ptr %29, align 8, !tbaa !26
  br label %30

30:                                               ; preds = %24, %19
  %31 = load ptr, ptr %2, align 8, !tbaa !3
  %32 = getelementptr inbounds nuw %struct.grpc_auth_refresh_token, ptr %31, i32 0, i32 3
  %33 = load ptr, ptr %32, align 8, !tbaa !27
  %34 = icmp ne ptr %33, null
  br i1 %34, label %35, label %41

35:                                               ; preds = %30
  %36 = load ptr, ptr %2, align 8, !tbaa !3
  %37 = getelementptr inbounds nuw %struct.grpc_auth_refresh_token, ptr %36, i32 0, i32 3
  %38 = load ptr, ptr %37, align 8, !tbaa !27
  call void @gpr_free(ptr noundef %38)
  %39 = load ptr, ptr %2, align 8, !tbaa !3
  %40 = getelementptr inbounds nuw %struct.grpc_auth_refresh_token, ptr %39, i32 0, i32 3
  store ptr null, ptr %40, align 8, !tbaa !27
  br label %41

41:                                               ; preds = %5, %35, %30
  ret void
}