; Function Attrs: mustprogress uwtable
define void @_Z32grpc_auth_refresh_token_destructP23grpc_auth_refresh_token(ptr noundef %0) local_unnamed_addr #5 {
  %2 = icmp eq ptr %0, null
  br i1 %2, label %15, label %3

3:                                                ; preds = %1
  store ptr @.str, ptr %0, align 8, !tbaa !3
  %4 = getelementptr inbounds nuw i8, ptr %0, i64 8
  %5 = load ptr, ptr %4, align 8, !tbaa !19
  %.not = icmp eq ptr %5, null
  br i1 %.not, label %7, label %6

6:                                                ; preds = %3
  tail call void @gpr_free(ptr noundef nonnull %5)
  store ptr null, ptr %4, align 8, !tbaa !19
  br label %7

7:                                                ; preds = %6, %3
  %8 = getelementptr inbounds nuw i8, ptr %0, i64 16
  %9 = load ptr, ptr %8, align 8, !tbaa !20
  %.not14 = icmp eq ptr %9, null
  br i1 %.not14, label %11, label %10

10:                                               ; preds = %7
  tail call void @gpr_free(ptr noundef nonnull %9)
  store ptr null, ptr %8, align 8, !tbaa !20
  br label %11

11:                                               ; preds = %10, %7
  %12 = getelementptr inbounds nuw i8, ptr %0, i64 24
  %13 = load ptr, ptr %12, align 8, !tbaa !21
  %.not15 = icmp eq ptr %13, null
  br i1 %.not15, label %15, label %14

14:                                               ; preds = %11
  tail call void @gpr_free(ptr noundef nonnull %13)
  store ptr null, ptr %12, align 8, !tbaa !21
  br label %15

15:                                               ; preds = %1, %14, %11
  ret void
}